; Function Attrs: nounwind uwtable
define ptr @l_Lean_ParserCompiler_CombinatorAttribute_getDeclFor_x3f___boxed(ptr noundef %0, ptr noundef %1, ptr noundef %2) local_unnamed_addr #0 {
  %4 = getelementptr inbounds nuw i8, ptr %0, i64 16
  %5 = load ptr, ptr %4, align 8, !tbaa !4
  %6 = getelementptr inbounds nuw i8, ptr %5, i64 8
  %7 = load ptr, ptr %6, align 8, !tbaa !4
  %8 = getelementptr i8, ptr %7, i64 32
  %.val.i = load i8, ptr %8, align 1, !tbaa !16
  %9 = tail call ptr @l_Lean_SimplePersistentEnvExtension_getState___rarg(ptr noundef nonnull inttoptr (i64 1 to ptr), ptr noundef %5, ptr noundef %1, i8 noundef zeroext %.val.i) #6
  %10 = tail call ptr @l_Lean_RBNode_find___at_Lean_NameMap_find_x3f___spec__1___rarg(ptr noundef %9, ptr noundef %2) #6
  %11 = ptrtoint ptr %9 to i64
  %12 = and i64 %11, 1
  %.not.i9 = icmp eq i64 %12, 0
  br i1 %.not.i9, label %13, label %l_Lean_ParserCompiler_CombinatorAttribute_getDeclFor_x3f.exit

13:                                               ; preds = %3
  %14 = load i32, ptr %9, align 4, !tbaa !8
  %15 = icmp sgt i32 %14, 1
  br i1 %15, label %16, label %18, !prof !11

16:                                               ; preds = %13
  %17 = add nsw i32 %14, -1
  store i32 %17, ptr %9, align 4, !tbaa !8
  br label %l_Lean_ParserCompiler_CombinatorAttribute_getDeclFor_x3f.exit

18:                                               ; preds = %13
  %.not.i.i = icmp eq i32 %14, 0
  br i1 %.not.i.i, label %l_Lean_ParserCompiler_CombinatorAttribute_getDeclFor_x3f.exit, label %19

19:                                               ; preds = %18
  tail call void @lean_dec_ref_cold(ptr noundef nonnull %9) #6
  br label %l_Lean_ParserCompiler_CombinatorAttribute_getDeclFor_x3f.exit

l_Lean_ParserCompiler_CombinatorAttribute_getDeclFor_x3f.exit: ; preds = %3, %16, %18, %19
  %20 = ptrtoint ptr %2 to i64
  %21 = and i64 %20, 1
  %.not = icmp eq i64 %21, 0
  br i1 %.not, label %22, label %lean_dec.exit6

22:                                               ; preds = %l_Lean_ParserCompiler_CombinatorAttribute_getDeclFor_x3f.exit
  %23 = load i32, ptr %2, align 4, !tbaa !8
  %24 = icmp sgt i32 %23, 1
  br i1 %24, label %25, label %27, !prof !11

25:                                               ; preds = %22
  %26 = add nsw i32 %23, -1
  store i32 %26, ptr %2, align 4, !tbaa !8
  br label %lean_dec.exit6

27:                                               ; preds = %22
  %.not.i = icmp eq i32 %23, 0
  br i1 %.not.i, label %lean_dec.exit6, label %28

28:                                               ; preds = %27
  tail call void @lean_dec_ref_cold(ptr noundef nonnull %2) #6
  br label %lean_dec.exit6

lean_dec.exit6:                                   ; preds = %28, %27, %25, %l_Lean_ParserCompiler_CombinatorAttribute_getDeclFor_x3f.exit
  %29 = ptrtoint ptr %0 to i64
  %30 = and i64 %29, 1
  %.not10 = icmp eq i64 %30, 0
  br i1 %.not10, label %31, label %lean_dec.exit

31:                                               ; preds = %lean_dec.exit6
  %32 = load i32, ptr %0, align 4, !tbaa !8
  %33 = icmp sgt i32 %32, 1
  br i1 %33, label %34, label %36, !prof !11

34:                                               ; preds = %31
  %35 = add nsw i32 %32, -1
  store i32 %35, ptr %0, align 4, !tbaa !8
  br label %lean_dec.exit

36:                                               ; preds = %31
  %.not.i7 = icmp eq i32 %32, 0
  br i1 %.not.i7, label %lean_dec.exit, label %37

37:                                               ; preds = %36
  tail call void @lean_dec_ref_cold(ptr noundef nonnull %0) #6
  br label %lean_dec.exit

lean_dec.exit:                                    ; preds = %37, %36, %34, %lean_dec.exit6
  ret ptr %10
}